target datalayout = "e-m:e-p270:32:32-p271:32:32-p272:64:64-i64:64-i128:128-f80:128-n8:16:32:64-S128"
target triple = "x86_64-pc-linux-gnu"

; Function Attrs: inlinehint nounwind uwtable
define internal i64 @mbedtls_ct_mpi_uint_if_else_0(i64 noundef %0, i64 noundef %1) #3 {
  %3 = alloca i64, align 8
  %4 = alloca i64, align 8
  store i64 %0, ptr %3, align 8, !tbaa !3
  store i64 %1, ptr %4, align 8, !tbaa !3
  %5 = load i64, ptr %3, align 8, !tbaa !3
  %6 = load i64, ptr %4, align 8, !tbaa !3
  %7 = and i64 %5, %6
  ret i64 %7
}

; Function Attrs: inlinehint nounwind uwtable
define internal i64 @mbedtls_ct_bool(i64 noundef %0) #3 {
  %2 = alloca i64, align 8
  %3 = alloca i64, align 8
  store i64 %0, ptr %2, align 8, !tbaa !3
  call void @llvm.lifetime.start.p0(i64 8, ptr %3) #7
  %4 = load i64, ptr %2, align 8, !tbaa !3
  %5 = call i64 asm sideeffect "mov  $1, $0                                \0A\09neg  $0                                      \0A\09or   $1, $0                                \0A\09sar  $$63, $0                                 \0A\09", "=&{ax},{di},~{dirflag},~{fpsr},~{flags}"(i64 %4) #7, !srcloc !17
  store i64 %5, ptr %3, align 8, !tbaa !3
  %6 = load i64, ptr %3, align 8, !tbaa !3
  call void @llvm.lifetime.end.p0(i64 8, ptr %3) #7
  ret i64 %6
}

; Function Attrs: nounwind uwtable
define hidden i64 @mbedtls_mpi_core_add_if(ptr noundef %0, ptr noundef %1, i64 noundef %2, i32 noundef %3) #0 {
  %5 = alloca ptr, align 8
  %6 = alloca ptr, align 8
  %7 = alloca i64, align 8
  %8 = alloca i32, align 4
  %9 = alloca i64, align 8
  %10 = alloca i64, align 8
  %11 = alloca i64, align 8
  %12 = alloca i64, align 8
  %13 = alloca i64, align 8
  store ptr %0, ptr %5, align 8, !tbaa !7
  store ptr %1, ptr %6, align 8, !tbaa !7
  store i64 %2, ptr %7, align 8, !tbaa !3
  store i32 %3, ptr %8, align 4, !tbaa !10
  call void @llvm.lifetime.start.p0(i64 8, ptr %9) #7
  store i64 0, ptr %9, align 8, !tbaa !3
  call void @llvm.lifetime.start.p0(i64 8, ptr %10) #7
  %14 = load i32, ptr %8, align 4, !tbaa !10
  %15 = zext i32 %14 to i64
  %16 = call i64 @mbedtls_ct_bool(i64 noundef %15)
  store i64 %16, ptr %10, align 8, !tbaa !3
  call void @llvm.lifetime.start.p0(i64 8, ptr %11) #7
  store i64 0, ptr %11, align 8, !tbaa !3
  br label %17

17:                                               ; preds = %57, %4
  %18 = load i64, ptr %11, align 8, !tbaa !3
  %19 = load i64, ptr %7, align 8, !tbaa !3
  %20 = icmp ult i64 %18, %19
  br i1 %20, label %22, label %21

21:                                               ; preds = %17
  call void @llvm.lifetime.end.p0(i64 8, ptr %11) #7
  br label %60

22:                                               ; preds = %17
  call void @llvm.lifetime.start.p0(i64 8, ptr %12) #7
  %23 = load i64, ptr %10, align 8, !tbaa !3
  %24 = load ptr, ptr %6, align 8, !tbaa !7
  %25 = load i64, ptr %11, align 8, !tbaa !3
  %26 = getelementptr inbounds nuw i64, ptr %24, i64 %25
  %27 = load i64, ptr %26, align 8, !tbaa !3
  %28 = call i64 @mbedtls_ct_mpi_uint_if_else_0(i64 noundef %23, i64 noundef %27)
  store i64 %28, ptr %12, align 8, !tbaa !3
  call void @llvm.lifetime.start.p0(i64 8, ptr %13) #7
  %29 = load i64, ptr %9, align 8, !tbaa !3
  %30 = load ptr, ptr %5, align 8, !tbaa !7
  %31 = load i64, ptr %11, align 8, !tbaa !3
  %32 = getelementptr inbounds nuw i64, ptr %30, i64 %31
  %33 = load i64, ptr %32, align 8, !tbaa !3
  %34 = add i64 %29, %33
  store i64 %34, ptr %13, align 8, !tbaa !3
  %35 = load i64, ptr %13, align 8, !tbaa !3
  %36 = load ptr, ptr %5, align 8, !tbaa !7
  %37 = load i64, ptr %11, align 8, !tbaa !3
  %38 = getelementptr inbounds nuw i64, ptr %36, i64 %37
  %39 = load i64, ptr %38, align 8, !tbaa !3
  %40 = icmp ult i64 %35, %39
  %41 = zext i1 %40 to i32
  %42 = sext i32 %41 to i64
  store i64 %42, ptr %9, align 8, !tbaa !3
  %43 = load i64, ptr %12, align 8, !tbaa !3
  %44 = load i64, ptr %13, align 8, !tbaa !3
  %45 = add i64 %44, %43
  store i64 %45, ptr %13, align 8, !tbaa !3
  %46 = load i64, ptr %13, align 8, !tbaa !3
  %47 = load i64, ptr %12, align 8, !tbaa !3
  %48 = icmp ult i64 %46, %47
  %49 = zext i1 %48 to i32
  %50 = sext i32 %49 to i64
  %51 = load i64, ptr %9, align 8, !tbaa !3
  %52 = add i64 %51, %50
  store i64 %52, ptr %9, align 8, !tbaa !3
  %53 = load i64, ptr %13, align 8, !tbaa !3
  %54 = load ptr, ptr %5, align 8, !tbaa !7
  %55 = load i64, ptr %11, align 8, !tbaa !3
  %56 = getelementptr inbounds nuw i64, ptr %54, i64 %55
  store i64 %53, ptr %56, align 8, !tbaa !3
  call void @llvm.lifetime.end.p0(i64 8, ptr %13) #7
  call void @llvm.lifetime.end.p0(i64 8, ptr %12) #7
  br label %57

57:                                               ; preds = %22
  %58 = load i64, ptr %11, align 8, !tbaa !3
  %59 = add i64 %58, 1
  store i64 %59, ptr %11, align 8, !tbaa !3
  br label %17, !llvm.loop !37

60:                                               ; preds = %21
  %61 = load i64, ptr %9, align 8, !tbaa !3
  call void @llvm.lifetime.end.p0(i64 8, ptr %10) #7
  call void @llvm.lifetime.end.p0(i64 8, ptr %9) #7
  ret i64 %61
}