; Function Attrs: nounwind uwtable
define hidden range(i64 0, 3) i64 @mbedtls_mpi_core_add_if(ptr noundef captures(none) %0, ptr noundef readonly captures(none) %1, i64 noundef %2, i32 noundef %3) local_unnamed_addr #5 {
  %5 = zext i32 %3 to i64
  %6 = tail call i64 asm sideeffect "mov  $1, $0                                \0A\09neg  $0                                      \0A\09or   $1, $0                                \0A\09sar  $$63, $0                                 \0A\09", "=&{ax},{di},~{dirflag},~{fpsr},~{flags}"(i64 %5) #10, !srcloc !12
  %.not = icmp eq i64 %2, 0
  br i1 %.not, label %._crit_edge, label %.lr.ph

._crit_edge:                                      ; preds = %.lr.ph, %4
  %.0.lcssa = phi i64 [ 0, %4 ], [ %18, %.lr.ph ]
  ret i64 %.0.lcssa

.lr.ph:                                           ; preds = %4, %.lr.ph
  %.023 = phi i64 [ %18, %.lr.ph ], [ 0, %4 ]
  %.02122 = phi i64 [ %19, %.lr.ph ], [ 0, %4 ]
  %7 = getelementptr inbounds nuw i64, ptr %1, i64 %.02122
  %8 = load i64, ptr %7, align 8, !tbaa !3
  %9 = and i64 %8, %6
  %10 = getelementptr inbounds nuw i64, ptr %0, i64 %.02122
  %11 = load i64, ptr %10, align 8, !tbaa !3
  %12 = add i64 %11, %.023
  %13 = icmp ult i64 %12, %11
  %14 = zext i1 %13 to i64
  %15 = add i64 %12, %9
  %16 = icmp ult i64 %15, %9
  %17 = zext i1 %16 to i64
  %18 = add nuw nsw i64 %17, %14
  store i64 %15, ptr %10, align 8, !tbaa !3
  %19 = add nuw i64 %.02122, 1
  %exitcond.not = icmp eq i64 %19, %2
  br i1 %exitcond.not, label %._crit_edge, label %.lr.ph, !llvm.loop !29
}